; Function Attrs: nounwind uwtable
define dso_local noundef i32 @fed_mgr_q_update_origin_dep_msg(ptr noundef readonly captures(none) %0) local_unnamed_addr #0 {
  %2 = getelementptr inbounds nuw i8, ptr %0, i64 200
  %3 = load ptr, ptr %2, align 8
  %4 = load i64, ptr getelementptr inbounds nuw (i8, ptr @slurm_conf, i64 320), align 8
  %5 = and i64 %4, 281474976710656
  %.not = icmp eq i64 %5, 0
  br i1 %.not, label %15, label %6

6:                                                ; preds = %1
  %7 = tail call i32 @get_log_level() #16
  %8 = icmp sgt i32 %7, 3
  br i1 %8, label %9, label %15

9:                                                ; preds = %6
  %10 = getelementptr inbounds nuw i8, ptr %0, i64 212
  %11 = load i16, ptr %10, align 4
  %12 = tail call ptr @rpc_num2string(i16 noundef zeroext %11) #16
  %13 = getelementptr inbounds nuw i8, ptr %3, i64 8
  %14 = load i32, ptr %13, align 8
  tail call void (i32, ptr, ...) @log_var(i32 noundef 4, ptr noundef nonnull @.str.72, ptr noundef nonnull @__func__.fed_mgr_q_update_origin_dep_msg, ptr noundef %12, i32 noundef %14) #16
  br label %15

15:                                               ; preds = %6, %9, %1
  %16 = tail call ptr @slurm_xcalloc(i64 noundef 1, i64 noundef 16, i1 noundef zeroext true, i1 noundef zeroext false, ptr noundef nonnull @.str, i32 noundef 6003, ptr noundef nonnull @__func__.fed_mgr_q_update_origin_dep_msg) #16
  %17 = load ptr, ptr %3, align 8
  store ptr %17, ptr %16, align 8
  %18 = getelementptr inbounds nuw i8, ptr %3, i64 8
  %19 = load i32, ptr %18, align 8
  %20 = getelementptr inbounds nuw i8, ptr %16, i64 8
  store i32 %19, ptr %20, align 8
  store ptr null, ptr %3, align 8
  %21 = load ptr, ptr @origin_dep_update_list, align 8
  tail call void @list_append(ptr noundef %21, ptr noundef nonnull %16) #16
  %22 = tail call i32 @pthread_mutex_lock(ptr noundef nonnull @origin_dep_update_mutex) #16
  %.not16 = icmp eq i32 %22, 0
  br i1 %.not16, label %25, label %23

23:                                               ; preds = %15
  %24 = tail call ptr @__errno_location() #17
  store i32 %22, ptr %24, align 4
  tail call void (ptr, ...) @fatal_abort(ptr noundef nonnull @.str.1, ptr noundef nonnull @__func__.fed_mgr_q_update_origin_dep_msg) #18
  unreachable

25:                                               ; preds = %15
  %26 = tail call i32 @pthread_cond_broadcast(ptr noundef nonnull @origin_dep_cond) #16
  %.not17 = icmp eq i32 %26, 0
  br i1 %.not17, label %30, label %27

27:                                               ; preds = %25
  %28 = tail call ptr @__errno_location() #17
  store i32 %26, ptr %28, align 4
  %29 = tail call i32 (ptr, ...) @error(ptr noundef nonnull @.str.73, ptr noundef nonnull @.str, i32 noundef 6014, ptr noundef nonnull @__func__.fed_mgr_q_update_origin_dep_msg) #16
  br label %30

30:                                               ; preds = %27, %25
  %31 = tail call i32 @pthread_mutex_unlock(ptr noundef nonnull @origin_dep_update_mutex) #16
  %.not18 = icmp eq i32 %31, 0
  br i1 %.not18, label %34, label %32

32:                                               ; preds = %30
  %33 = tail call ptr @__errno_location() #17
  store i32 %31, ptr %33, align 4
  tail call void (ptr, ...) @fatal_abort(ptr noundef nonnull @.str.2, ptr noundef nonnull @__func__.fed_mgr_q_update_origin_dep_msg) #18
  unreachable

34:                                               ; preds = %30
  ret i32 0
}